target datalayout = "e-m:e-p270:32:32-p271:32:32-p272:64:64-i64:64-i128:128-f80:128-n8:16:32:64-S128"
target triple = "x86_64-pc-linux-gnu"

%"class.llvm::MCInst" = type { i32, i32, %"class.llvm::SMLoc", %"class.llvm::SmallVector" }
%"class.llvm::SMLoc" = type { ptr }
%"class.llvm::SmallVector" = type { %"class.llvm::SmallVectorImpl", %"struct.llvm::SmallVectorStorage" }
%"class.llvm::SmallVectorImpl" = type { %"class.llvm::SmallVectorTemplateBase" }
%"class.llvm::SmallVectorTemplateBase" = type { %"class.llvm::SmallVectorTemplateCommon" }
%"class.llvm::SmallVectorTemplateCommon" = type { %"class.llvm::SmallVectorBase" }
%"class.llvm::SmallVectorBase" = type { ptr, i32, i32 }
%"struct.llvm::SmallVectorStorage" = type { [96 x i8] }
%"class.llvm::MCOperand" = type { i8, %union.anon }
%union.anon = type { i64 }
%"class.llvm::MCRegister" = type { i32 }

; Function Attrs: mustprogress nounwind uwtable
define linkonce_odr hidden noundef ptr @_ZNK4llvm25SmallVectorTemplateCommonINS_9MCOperandEvE5beginEv(ptr noundef nonnull align 8 dereferenceable(16) %0) #0 comdat align 2 {
  %2 = alloca ptr, align 8
  store ptr %0, ptr %2, align 8
  %3 = load ptr, ptr %2, align 8
  %4 = getelementptr inbounds nuw %"class.llvm::SmallVectorBase", ptr %3, i32 0, i32 0
  %5 = load ptr, ptr %4, align 8
  ret ptr %5
}

; Function Attrs: mustprogress nounwind uwtable
define internal noundef i32 @_ZN4llvm10AArch64_AML13getShiftValueEj(i32 noundef %0) #0 {
  %2 = alloca i32, align 4
  store i32 %0, ptr %2, align 4
  %3 = load i32, ptr %2, align 4
  %4 = and i32 %3, 63
  ret i32 %4
}

; Function Attrs: mustprogress nounwind uwtable
define linkonce_odr hidden noundef i64 @_ZNK4llvm9MCOperand6getImmEv(ptr noundef nonnull align 8 dereferenceable(16) %0) #0 comdat align 2 {
  %2 = alloca ptr, align 8
  store ptr %0, ptr %2, align 8
  %3 = load ptr, ptr %2, align 8
  %4 = getelementptr inbounds nuw %"class.llvm::MCOperand", ptr %3, i32 0, i32 1
  %5 = load i64, ptr %4, align 8
  ret i64 %5
}

; Function Attrs: mustprogress nounwind uwtable
define linkonce_odr hidden void @_ZN4llvm10MCRegisterC2Ej(ptr noundef nonnull align 4 dereferenceable(4) %0, i32 noundef %1) unnamed_addr #0 comdat align 2 {
  %3 = alloca ptr, align 8
  %4 = alloca i32, align 4
  store ptr %0, ptr %3, align 8
  store i32 %1, ptr %4, align 4
  %5 = load ptr, ptr %3, align 8
  %6 = getelementptr inbounds nuw %"class.llvm::MCRegister", ptr %5, i32 0, i32 0
  %7 = load i32, ptr %4, align 4
  store i32 %7, ptr %6, align 4
  ret void
}

; Function Attrs: mustprogress nounwind uwtable
define linkonce_odr hidden noundef nonnull align 8 dereferenceable(16) ptr @_ZNK4llvm25SmallVectorTemplateCommonINS_9MCOperandEvEixEm(ptr noundef nonnull align 8 dereferenceable(16) %0, i64 noundef %1) #0 comdat align 2 {
  %3 = alloca ptr, align 8
  %4 = alloca i64, align 8
  store ptr %0, ptr %3, align 8
  store i64 %1, ptr %4, align 8
  %5 = load ptr, ptr %3, align 8
  %6 = call noundef ptr @_ZNK4llvm25SmallVectorTemplateCommonINS_9MCOperandEvE5beginEv(ptr noundef nonnull align 8 dereferenceable(16) %5)
  %7 = load i64, ptr %4, align 8
  %8 = getelementptr inbounds %"class.llvm::MCOperand", ptr %6, i64 %7
  ret ptr %8
}

; Function Attrs: mustprogress nounwind uwtable
define dso_local noundef zeroext i1 @_ZN4llvm10AArch64_MC13isZeroFPIdiomERKNS_6MCInstE(ptr noundef nonnull align 8 dereferenceable(128) %0) #0 {
  %2 = alloca i1, align 1
  %3 = alloca ptr, align 8
  store ptr %0, ptr %3, align 8
  %4 = load ptr, ptr %3, align 8
  %5 = call noundef i32 @_ZNK4llvm6MCInst9getOpcodeEv(ptr noundef nonnull align 8 dereferenceable(128) %4)
  switch i32 %5, label %23 [
    i32 4773, label %6
    i32 4766, label %6
    i32 4765, label %6
    i32 4767, label %6
    i32 4770, label %11
    i32 4774, label %11
    i32 4768, label %11
    i32 4771, label %11
  ]

6:                                                ; preds = %1, %1, %1, %1
  %7 = load ptr, ptr %3, align 8
  %8 = call noundef nonnull align 8 dereferenceable(16) ptr @_ZNK4llvm6MCInst10getOperandEj(ptr noundef nonnull align 8 dereferenceable(128) %7, i32 noundef 1)
  %9 = call noundef i64 @_ZNK4llvm9MCOperand6getImmEv(ptr noundef nonnull align 8 dereferenceable(16) %8)
  %10 = icmp eq i64 %9, 0
  store i1 %10, ptr %2, align 1
  br label %24

11:                                               ; preds = %1, %1, %1, %1
  %12 = load ptr, ptr %3, align 8
  %13 = call noundef nonnull align 8 dereferenceable(16) ptr @_ZNK4llvm6MCInst10getOperandEj(ptr noundef nonnull align 8 dereferenceable(128) %12, i32 noundef 1)
  %14 = call noundef i64 @_ZNK4llvm9MCOperand6getImmEv(ptr noundef nonnull align 8 dereferenceable(16) %13)
  %15 = icmp eq i64 %14, 0
  br i1 %15, label %16, label %21

16:                                               ; preds = %11
  %17 = load ptr, ptr %3, align 8
  %18 = call noundef nonnull align 8 dereferenceable(16) ptr @_ZNK4llvm6MCInst10getOperandEj(ptr noundef nonnull align 8 dereferenceable(128) %17, i32 noundef 2)
  %19 = call noundef i64 @_ZNK4llvm9MCOperand6getImmEv(ptr noundef nonnull align 8 dereferenceable(16) %18)
  %20 = icmp eq i64 %19, 0
  br label %21

21:                                               ; preds = %16, %11
  %22 = phi i1 [ false, %11 ], [ %20, %16 ]
  store i1 %22, ptr %2, align 1
  br label %24

23:                                               ; preds = %1
  store i1 false, ptr %2, align 1
  br label %24

24:                                               ; preds = %23, %21, %6
  %25 = load i1, ptr %2, align 1
  ret i1 %25
}

; Function Attrs: mustprogress nounwind uwtable
define dso_local noundef zeroext i1 @_ZN4llvm10AArch64_MC11isCopyIdiomERKNS_6MCInstE(ptr noundef nonnull align 8 dereferenceable(128) %0) #0 {
  %2 = alloca i1, align 1
  %3 = alloca ptr, align 8
  %4 = alloca %"class.llvm::MCRegister", align 4
  %5 = alloca %"class.llvm::MCRegister", align 4
  %6 = alloca %"class.llvm::MCRegister", align 4
  %7 = alloca %"class.llvm::MCRegister", align 4
  %8 = alloca %"class.llvm::MCRegister", align 4
  %9 = alloca %"class.llvm::MCRegister", align 4
  store ptr %0, ptr %3, align 8
  %10 = load ptr, ptr %3, align 8
  %11 = call noundef i32 @_ZNK4llvm6MCInst9getOpcodeEv(ptr noundef nonnull align 8 dereferenceable(128) %10)
  switch i32 %11, label %80 [
    i32 1462, label %12
    i32 1465, label %12
    i32 4875, label %51
    i32 4877, label %51
  ]

12:                                               ; preds = %1, %1
  %13 = load ptr, ptr %3, align 8
  %14 = call noundef nonnull align 8 dereferenceable(16) ptr @_ZNK4llvm6MCInst10getOperandEj(ptr noundef nonnull align 8 dereferenceable(128) %13, i32 noundef 0)
  %15 = call noundef zeroext i1 @_ZNK4llvm9MCOperand5isRegEv(ptr noundef nonnull align 8 dereferenceable(16) %14)
  br i1 %15, label %16, label %49

16:                                               ; preds = %12
  %17 = load ptr, ptr %3, align 8
  %18 = call noundef nonnull align 8 dereferenceable(16) ptr @_ZNK4llvm6MCInst10getOperandEj(ptr noundef nonnull align 8 dereferenceable(128) %17, i32 noundef 1)
  %19 = call noundef zeroext i1 @_ZNK4llvm9MCOperand5isRegEv(ptr noundef nonnull align 8 dereferenceable(16) %18)
  br i1 %19, label %20, label %49

20:                                               ; preds = %16
  %21 = load ptr, ptr %3, align 8
  %22 = call noundef nonnull align 8 dereferenceable(16) ptr @_ZNK4llvm6MCInst10getOperandEj(ptr noundef nonnull align 8 dereferenceable(128) %21, i32 noundef 0)
  %23 = call i32 @_ZNK4llvm9MCOperand6getRegEv(ptr noundef nonnull align 8 dereferenceable(16) %22)
  %24 = getelementptr inbounds nuw %"class.llvm::MCRegister", ptr %4, i32 0, i32 0
  store i32 %23, ptr %24, align 4
  %25 = call noundef zeroext i1 @_ZNK4llvm10MCRegistereqEi(ptr noundef nonnull align 4 dereferenceable(4) %4, i32 noundef 10)
  br i1 %25, label %44, label %26

26:                                               ; preds = %20
  %27 = load ptr, ptr %3, align 8
  %28 = call noundef nonnull align 8 dereferenceable(16) ptr @_ZNK4llvm6MCInst10getOperandEj(ptr noundef nonnull align 8 dereferenceable(128) %27, i32 noundef 0)
  %29 = call i32 @_ZNK4llvm9MCOperand6getRegEv(ptr noundef nonnull align 8 dereferenceable(16) %28)
  %30 = getelementptr inbounds nuw %"class.llvm::MCRegister", ptr %5, i32 0, i32 0
  store i32 %29, ptr %30, align 4
  %31 = call noundef zeroext i1 @_ZNK4llvm10MCRegistereqEi(ptr noundef nonnull align 4 dereferenceable(4) %5, i32 noundef 8)
  br i1 %31, label %44, label %32

32:                                               ; preds = %26
  %33 = load ptr, ptr %3, align 8
  %34 = call noundef nonnull align 8 dereferenceable(16) ptr @_ZNK4llvm6MCInst10getOperandEj(ptr noundef nonnull align 8 dereferenceable(128) %33, i32 noundef 1)
  %35 = call i32 @_ZNK4llvm9MCOperand6getRegEv(ptr noundef nonnull align 8 dereferenceable(16) %34)
  %36 = getelementptr inbounds nuw %"class.llvm::MCRegister", ptr %6, i32 0, i32 0
  store i32 %35, ptr %36, align 4
  %37 = call noundef zeroext i1 @_ZNK4llvm10MCRegistereqEi(ptr noundef nonnull align 4 dereferenceable(4) %6, i32 noundef 10)
  br i1 %37, label %44, label %38

38:                                               ; preds = %32
  %39 = load ptr, ptr %3, align 8
  %40 = call noundef nonnull align 8 dereferenceable(16) ptr @_ZNK4llvm6MCInst10getOperandEj(ptr noundef nonnull align 8 dereferenceable(128) %39, i32 noundef 1)
  %41 = call i32 @_ZNK4llvm9MCOperand6getRegEv(ptr noundef nonnull align 8 dereferenceable(16) %40)
  %42 = getelementptr inbounds nuw %"class.llvm::MCRegister", ptr %7, i32 0, i32 0
  store i32 %41, ptr %42, align 4
  %43 = call noundef zeroext i1 @_ZNK4llvm10MCRegistereqEi(ptr noundef nonnull align 4 dereferenceable(4) %7, i32 noundef 8)
  br i1 %43, label %44, label %49

44:                                               ; preds = %38, %32, %26, %20
  %45 = load ptr, ptr %3, align 8
  %46 = call noundef nonnull align 8 dereferenceable(16) ptr @_ZNK4llvm6MCInst10getOperandEj(ptr noundef nonnull align 8 dereferenceable(128) %45, i32 noundef 2)
  %47 = call noundef i64 @_ZNK4llvm9MCOperand6getImmEv(ptr noundef nonnull align 8 dereferenceable(16) %46)
  %48 = icmp eq i64 %47, 0
  br label %49

49:                                               ; preds = %44, %38, %16, %12
  %50 = phi i1 [ false, %38 ], [ false, %16 ], [ false, %12 ], [ %48, %44 ]
  store i1 %50, ptr %2, align 1
  br label %81

51:                                               ; preds = %1, %1
  %52 = load ptr, ptr %3, align 8
  %53 = call noundef nonnull align 8 dereferenceable(16) ptr @_ZNK4llvm6MCInst10getOperandEj(ptr noundef nonnull align 8 dereferenceable(128) %52, i32 noundef 1)
  %54 = call noundef zeroext i1 @_ZNK4llvm9MCOperand5isRegEv(ptr noundef nonnull align 8 dereferenceable(16) %53)
  br i1 %54, label %55, label %78

55:                                               ; preds = %51
  %56 = load ptr, ptr %3, align 8
  %57 = call noundef nonnull align 8 dereferenceable(16) ptr @_ZNK4llvm6MCInst10getOperandEj(ptr noundef nonnull align 8 dereferenceable(128) %56, i32 noundef 1)
  %58 = call i32 @_ZNK4llvm9MCOperand6getRegEv(ptr noundef nonnull align 8 dereferenceable(16) %57)
  %59 = getelementptr inbounds nuw %"class.llvm::MCRegister", ptr %8, i32 0, i32 0
  store i32 %58, ptr %59, align 4
  %60 = call noundef zeroext i1 @_ZNK4llvm10MCRegistereqEi(ptr noundef nonnull align 4 dereferenceable(4) %8, i32 noundef 11)
  br i1 %60, label %67, label %61

61:                                               ; preds = %55
  %62 = load ptr, ptr %3, align 8
  %63 = call noundef nonnull align 8 dereferenceable(16) ptr @_ZNK4llvm6MCInst10getOperandEj(ptr noundef nonnull align 8 dereferenceable(128) %62, i32 noundef 1)
  %64 = call i32 @_ZNK4llvm9MCOperand6getRegEv(ptr noundef nonnull align 8 dereferenceable(16) %63)
  %65 = getelementptr inbounds nuw %"class.llvm::MCRegister", ptr %9, i32 0, i32 0
  store i32 %64, ptr %65, align 4
  %66 = call noundef zeroext i1 @_ZNK4llvm10MCRegistereqEi(ptr noundef nonnull align 4 dereferenceable(4) %9, i32 noundef 12)
  br i1 %66, label %67, label %78

67:                                               ; preds = %61, %55
  %68 = load ptr, ptr %3, align 8
  %69 = call noundef nonnull align 8 dereferenceable(16) ptr @_ZNK4llvm6MCInst10getOperandEj(ptr noundef nonnull align 8 dereferenceable(128) %68, i32 noundef 2)
  %70 = call noundef zeroext i1 @_ZNK4llvm9MCOperand5isRegEv(ptr noundef nonnull align 8 dereferenceable(16) %69)
  br i1 %70, label %71, label %78

71:                                               ; preds = %67
  %72 = load ptr, ptr %3, align 8
  %73 = call noundef nonnull align 8 dereferenceable(16) ptr @_ZNK4llvm6MCInst10getOperandEj(ptr noundef nonnull align 8 dereferenceable(128) %72, i32 noundef 3)
  %74 = call noundef i64 @_ZNK4llvm9MCOperand6getImmEv(ptr noundef nonnull align 8 dereferenceable(16) %73)
  %75 = trunc i64 %74 to i32
  %76 = call noundef i32 @_ZN4llvm10AArch64_AML13getShiftValueEj(i32 noundef %75)
  %77 = icmp eq i32 %76, 0
  br label %78

78:                                               ; preds = %71, %67, %61, %51
  %79 = phi i1 [ false, %67 ], [ false, %61 ], [ false, %51 ], [ %77, %71 ]
  store i1 %79, ptr %2, align 1
  br label %81

80:                                               ; preds = %1
  store i1 false, ptr %2, align 1
  br label %81

81:                                               ; preds = %80, %78, %49
  %82 = load i1, ptr %2, align 1
  ret i1 %82
}

; Function Attrs: mustprogress nounwind uwtable
define linkonce_odr hidden noundef zeroext i1 @_ZNK4llvm10MCRegistereqEi(ptr noundef nonnull align 4 dereferenceable(4) %0, i32 noundef %1) #0 comdat align 2 {
  %3 = alloca ptr, align 8
  %4 = alloca i32, align 4
  store ptr %0, ptr %3, align 8
  store i32 %1, ptr %4, align 4
  %5 = load ptr, ptr %3, align 8
  %6 = getelementptr inbounds nuw %"class.llvm::MCRegister", ptr %5, i32 0, i32 0
  %7 = load i32, ptr %6, align 4
  %8 = load i32, ptr %4, align 4
  %9 = icmp eq i32 %7, %8
  ret i1 %9
}

; Function Attrs: mustprogress nounwind uwtable
define linkonce_odr hidden i32 @_ZNK4llvm9MCOperand6getRegEv(ptr noundef nonnull align 8 dereferenceable(16) %0) #0 comdat align 2 {
  %2 = alloca %"class.llvm::MCRegister", align 4
  %3 = alloca ptr, align 8
  store ptr %0, ptr %3, align 8
  %4 = load ptr, ptr %3, align 8
  %5 = getelementptr inbounds nuw %"class.llvm::MCOperand", ptr %4, i32 0, i32 1
  %6 = load i32, ptr %5, align 8
  call void @_ZN4llvm10MCRegisterC2Ej(ptr noundef nonnull align 4 dereferenceable(4) %2, i32 noundef %6)
  %7 = getelementptr inbounds nuw %"class.llvm::MCRegister", ptr %2, i32 0, i32 0
  %8 = load i32, ptr %7, align 4
  ret i32 %8
}

; Function Attrs: mustprogress nounwind uwtable
define linkonce_odr hidden noundef zeroext i1 @_ZNK4llvm9MCOperand5isRegEv(ptr noundef nonnull align 8 dereferenceable(16) %0) #0 comdat align 2 {
  %2 = alloca ptr, align 8
  store ptr %0, ptr %2, align 8
  %3 = load ptr, ptr %2, align 8
  %4 = getelementptr inbounds nuw %"class.llvm::MCOperand", ptr %3, i32 0, i32 0
  %5 = load i8, ptr %4, align 8
  %6 = zext i8 %5 to i32
  %7 = icmp eq i32 %6, 1
  ret i1 %7
}

; Function Attrs: mustprogress nounwind uwtable
define linkonce_odr hidden noundef nonnull align 8 dereferenceable(16) ptr @_ZNK4llvm6MCInst10getOperandEj(ptr noundef nonnull align 8 dereferenceable(128) %0, i32 noundef %1) #0 comdat align 2 {
  %3 = alloca ptr, align 8
  %4 = alloca i32, align 4
  store ptr %0, ptr %3, align 8
  store i32 %1, ptr %4, align 4
  %5 = load ptr, ptr %3, align 8
  %6 = getelementptr inbounds nuw %"class.llvm::MCInst", ptr %5, i32 0, i32 3
  %7 = load i32, ptr %4, align 4
  %8 = zext i32 %7 to i64
  %9 = call noundef nonnull align 8 dereferenceable(16) ptr @_ZNK4llvm25SmallVectorTemplateCommonINS_9MCOperandEvEixEm(ptr noundef nonnull align 8 dereferenceable(16) %6, i64 noundef %8)
  ret ptr %9
}

; Function Attrs: mustprogress nounwind uwtable
define linkonce_odr hidden noundef i32 @_ZNK4llvm6MCInst9getOpcodeEv(ptr noundef nonnull align 8 dereferenceable(128) %0) #0 comdat align 2 {
  %2 = alloca ptr, align 8
  store ptr %0, ptr %2, align 8
  %3 = load ptr, ptr %2, align 8
  %4 = getelementptr inbounds nuw %"class.llvm::MCInst", ptr %3, i32 0, i32 0
  %5 = load i32, ptr %4, align 8
  ret i32 %5
}

; Function Attrs: mustprogress nounwind uwtable
define dso_local noundef zeroext i1 @_ZN4llvm10AArch64_MC17isExynosResetFastERKNS_6MCInstE(ptr noundef nonnull align 8 dereferenceable(128) %0) #0 {
  %2 = alloca i1, align 1
  %3 = alloca ptr, align 8
  %4 = alloca %"class.llvm::MCRegister", align 4
  %5 = alloca %"class.llvm::MCRegister", align 4
  store ptr %0, ptr %3, align 8
  %6 = load ptr, ptr %3, align 8
  %7 = call noundef i32 @_ZNK4llvm6MCInst9getOpcodeEv(ptr noundef nonnull align 8 dereferenceable(128) %6)
  switch i32 %7, label %29 [
    i32 1511, label %8
    i32 1512, label %8
    i32 4777, label %8
    i32 4778, label %8
    i32 4791, label %8
    i32 4792, label %8
    i32 4874, label %9
    i32 4876, label %9
  ]

8:                                                ; preds = %1, %1, %1, %1, %1, %1
  store i1 true, ptr %2, align 1
  br label %37

9:                                                ; preds = %1, %1
  %10 = load ptr, ptr %3, align 8
  %11 = call noundef nonnull align 8 dereferenceable(16) ptr @_ZNK4llvm6MCInst10getOperandEj(ptr noundef nonnull align 8 dereferenceable(128) %10, i32 noundef 1)
  %12 = call noundef zeroext i1 @_ZNK4llvm9MCOperand5isRegEv(ptr noundef nonnull align 8 dereferenceable(16) %11)
  br i1 %12, label %13, label %27

13:                                               ; preds = %9
  %14 = load ptr, ptr %3, align 8
  %15 = call noundef nonnull align 8 dereferenceable(16) ptr @_ZNK4llvm6MCInst10getOperandEj(ptr noundef nonnull align 8 dereferenceable(128) %14, i32 noundef 1)
  %16 = call i32 @_ZNK4llvm9MCOperand6getRegEv(ptr noundef nonnull align 8 dereferenceable(16) %15)
  %17 = getelementptr inbounds nuw %"class.llvm::MCRegister", ptr %4, i32 0, i32 0
  store i32 %16, ptr %17, align 4
  %18 = call noundef zeroext i1 @_ZNK4llvm10MCRegistereqEi(ptr noundef nonnull align 4 dereferenceable(4) %4, i32 noundef 11)
  br i1 %18, label %25, label %19

19:                                               ; preds = %13
  %20 = load ptr, ptr %3, align 8
  %21 = call noundef nonnull align 8 dereferenceable(16) ptr @_ZNK4llvm6MCInst10getOperandEj(ptr noundef nonnull align 8 dereferenceable(128) %20, i32 noundef 1)
  %22 = call i32 @_ZNK4llvm9MCOperand6getRegEv(ptr noundef nonnull align 8 dereferenceable(16) %21)
  %23 = getelementptr inbounds nuw %"class.llvm::MCRegister", ptr %5, i32 0, i32 0
  store i32 %22, ptr %23, align 4
  %24 = call noundef zeroext i1 @_ZNK4llvm10MCRegistereqEi(ptr noundef nonnull align 4 dereferenceable(4) %5, i32 noundef 12)
  br label %25

25:                                               ; preds = %19, %13
  %26 = phi i1 [ true, %13 ], [ %24, %19 ]
  br label %27

27:                                               ; preds = %25, %9
  %28 = phi i1 [ false, %9 ], [ %26, %25 ]
  store i1 %28, ptr %2, align 1
  br label %37

29:                                               ; preds = %1
  %30 = load ptr, ptr %3, align 8
  %31 = call noundef zeroext i1 @_ZN4llvm10AArch64_MC11isCopyIdiomERKNS_6MCInstE(ptr noundef nonnull align 8 dereferenceable(128) %30)
  br i1 %31, label %35, label %32

32:                                               ; preds = %29
  %33 = load ptr, ptr %3, align 8
  %34 = call noundef zeroext i1 @_ZN4llvm10AArch64_MC13isZeroFPIdiomERKNS_6MCInstE(ptr noundef nonnull align 8 dereferenceable(128) %33)
  br label %35

35:                                               ; preds = %32, %29
  %36 = phi i1 [ true, %29 ], [ %34, %32 ]
  store i1 %36, ptr %2, align 1
  br label %37

37:                                               ; preds = %35, %27, %8
  %38 = load i1, ptr %2, align 1
  ret i1 %38
}