; Function Attrs: mustprogress nofree norecurse nosync nounwind willreturn memory(read, inaccessiblemem: none) uwtable
define dso_local noundef zeroext i1 @_ZN4llvm10AArch64_MC17isExynosResetFastERKNS_6MCInstE(ptr noundef nonnull readonly align 8 captures(none) dereferenceable(128) %0) local_unnamed_addr #0 {
  %2 = load i32, ptr %0, align 8
  switch i32 %2, label %_ZN4llvm10AArch64_MC13isZeroFPIdiomERKNS_6MCInstE.exit.fold.split [
    i32 1511, label %_ZN4llvm10AArch64_MC13isZeroFPIdiomERKNS_6MCInstE.exit
    i32 1512, label %_ZN4llvm10AArch64_MC13isZeroFPIdiomERKNS_6MCInstE.exit
    i32 4777, label %_ZN4llvm10AArch64_MC13isZeroFPIdiomERKNS_6MCInstE.exit
    i32 4778, label %_ZN4llvm10AArch64_MC13isZeroFPIdiomERKNS_6MCInstE.exit
    i32 4791, label %_ZN4llvm10AArch64_MC13isZeroFPIdiomERKNS_6MCInstE.exit
    i32 4792, label %_ZN4llvm10AArch64_MC13isZeroFPIdiomERKNS_6MCInstE.exit
    i32 4874, label %3
    i32 4876, label %3
    i32 1462, label %13
    i32 1465, label %13
    i32 4875, label %32
    i32 4877, label %32
    i32 4773, label %49
    i32 4766, label %49
    i32 4765, label %49
    i32 4767, label %49
    i32 4770, label %55
    i32 4774, label %55
    i32 4768, label %55
    i32 4771, label %55
  ]

3:                                                ; preds = %1, %1
  %4 = getelementptr inbounds nuw i8, ptr %0, i64 16
  %5 = load ptr, ptr %4, align 8
  %6 = getelementptr inbounds nuw i8, ptr %5, i64 16
  %7 = load i8, ptr %6, align 8
  %8 = icmp eq i8 %7, 1
  br i1 %8, label %9, label %_ZN4llvm10AArch64_MC13isZeroFPIdiomERKNS_6MCInstE.exit

9:                                                ; preds = %3
  %10 = getelementptr inbounds nuw i8, ptr %5, i64 24
  %11 = load i32, ptr %10, align 8
  %12 = add i32 %11, -11
  %spec.select = icmp ult i32 %12, 2
  br label %_ZN4llvm10AArch64_MC13isZeroFPIdiomERKNS_6MCInstE.exit

13:                                               ; preds = %1, %1
  %14 = getelementptr inbounds nuw i8, ptr %0, i64 16
  %15 = load ptr, ptr %14, align 8
  %16 = load i8, ptr %15, align 8
  %17 = icmp eq i8 %16, 1
  br i1 %17, label %18, label %_ZN4llvm10AArch64_MC13isZeroFPIdiomERKNS_6MCInstE.exit.fold.split

18:                                               ; preds = %13
  %19 = getelementptr inbounds nuw i8, ptr %15, i64 16
  %20 = load i8, ptr %19, align 8
  %21 = icmp eq i8 %20, 1
  br i1 %21, label %22, label %_ZN4llvm10AArch64_MC13isZeroFPIdiomERKNS_6MCInstE.exit.fold.split

22:                                               ; preds = %18
  %23 = getelementptr inbounds nuw i8, ptr %15, i64 8
  %24 = load i32, ptr %23, align 8
  switch i32 %24, label %25 [
    i32 10, label %28
    i32 8, label %28
  ]

25:                                               ; preds = %22
  %26 = getelementptr inbounds nuw i8, ptr %15, i64 24
  %27 = load i32, ptr %26, align 8
  switch i32 %27, label %_ZN4llvm10AArch64_MC13isZeroFPIdiomERKNS_6MCInstE.exit.fold.split [
    i32 10, label %28
    i32 8, label %28
  ]

28:                                               ; preds = %25, %25, %22, %22
  %29 = getelementptr inbounds nuw i8, ptr %15, i64 40
  %30 = load i64, ptr %29, align 8
  %31 = icmp eq i64 %30, 0
  br i1 %31, label %_ZN4llvm10AArch64_MC13isZeroFPIdiomERKNS_6MCInstE.exit, label %_ZN4llvm10AArch64_MC13isZeroFPIdiomERKNS_6MCInstE.exit.fold.split

32:                                               ; preds = %1, %1
  %33 = getelementptr inbounds nuw i8, ptr %0, i64 16
  %34 = load ptr, ptr %33, align 8
  %35 = getelementptr inbounds nuw i8, ptr %34, i64 16
  %36 = load i8, ptr %35, align 8
  %37 = icmp eq i8 %36, 1
  br i1 %37, label %38, label %_ZN4llvm10AArch64_MC13isZeroFPIdiomERKNS_6MCInstE.exit.fold.split

38:                                               ; preds = %32
  %39 = getelementptr inbounds nuw i8, ptr %34, i64 24
  %40 = load i32, ptr %39, align 8
  %.off.i = add i32 %40, -11
  %switch.i = icmp ult i32 %.off.i, 2
  br i1 %switch.i, label %41, label %_ZN4llvm10AArch64_MC13isZeroFPIdiomERKNS_6MCInstE.exit.fold.split

41:                                               ; preds = %38
  %42 = getelementptr inbounds nuw i8, ptr %34, i64 32
  %43 = load i8, ptr %42, align 8
  %44 = icmp eq i8 %43, 1
  br i1 %44, label %_ZN4llvm10AArch64_MC11isCopyIdiomERKNS_6MCInstE.exit, label %_ZN4llvm10AArch64_MC13isZeroFPIdiomERKNS_6MCInstE.exit.fold.split

_ZN4llvm10AArch64_MC11isCopyIdiomERKNS_6MCInstE.exit: ; preds = %41
  %45 = getelementptr inbounds nuw i8, ptr %34, i64 56
  %46 = load i64, ptr %45, align 8
  %47 = and i64 %46, 63
  %48 = icmp eq i64 %47, 0
  br i1 %48, label %_ZN4llvm10AArch64_MC13isZeroFPIdiomERKNS_6MCInstE.exit, label %_ZN4llvm10AArch64_MC13isZeroFPIdiomERKNS_6MCInstE.exit.fold.split

49:                                               ; preds = %1, %1, %1, %1
  %50 = getelementptr inbounds nuw i8, ptr %0, i64 16
  %51 = load ptr, ptr %50, align 8
  %52 = getelementptr inbounds nuw i8, ptr %51, i64 24
  %53 = load i64, ptr %52, align 8
  %54 = icmp eq i64 %53, 0
  br label %_ZN4llvm10AArch64_MC13isZeroFPIdiomERKNS_6MCInstE.exit

55:                                               ; preds = %1, %1, %1, %1
  %56 = getelementptr inbounds nuw i8, ptr %0, i64 16
  %57 = load ptr, ptr %56, align 8
  %58 = getelementptr inbounds nuw i8, ptr %57, i64 24
  %59 = load i64, ptr %58, align 8
  %60 = icmp eq i64 %59, 0
  br i1 %60, label %61, label %_ZN4llvm10AArch64_MC13isZeroFPIdiomERKNS_6MCInstE.exit

61:                                               ; preds = %55
  %62 = getelementptr inbounds nuw i8, ptr %57, i64 40
  %63 = load i64, ptr %62, align 8
  %64 = icmp eq i64 %63, 0
  br label %_ZN4llvm10AArch64_MC13isZeroFPIdiomERKNS_6MCInstE.exit

_ZN4llvm10AArch64_MC13isZeroFPIdiomERKNS_6MCInstE.exit.fold.split: ; preds = %_ZN4llvm10AArch64_MC11isCopyIdiomERKNS_6MCInstE.exit, %28, %18, %13, %41, %32, %25, %38, %1
  br label %_ZN4llvm10AArch64_MC13isZeroFPIdiomERKNS_6MCInstE.exit

_ZN4llvm10AArch64_MC13isZeroFPIdiomERKNS_6MCInstE.exit: ; preds = %9, %1, %1, %1, %1, %1, %1, %_ZN4llvm10AArch64_MC13isZeroFPIdiomERKNS_6MCInstE.exit.fold.split, %61, %55, %49, %28, %_ZN4llvm10AArch64_MC11isCopyIdiomERKNS_6MCInstE.exit, %3
  %.0 = phi i1 [ true, %1 ], [ true, %1 ], [ true, %1 ], [ true, %1 ], [ true, %1 ], [ true, %1 ], [ false, %3 ], [ true, %_ZN4llvm10AArch64_MC11isCopyIdiomERKNS_6MCInstE.exit ], [ true, %28 ], [ %54, %49 ], [ false, %55 ], [ %64, %61 ], [ %spec.select, %9 ], [ false, %_ZN4llvm10AArch64_MC13isZeroFPIdiomERKNS_6MCInstE.exit.fold.split ]
  ret i1 %.0
}